 pthreadVC

 Timestamp is 4f026ef4 (Mon Jan 02 20:59:00 2012)

 Preferred load address is 10000000

 Start         Length     Name                   Class
 0001:00000000 000094c6H .text                   CODE
 0002:00000000 00000170H .idata$5                DATA
 0002:00000170 00000004H .CRT$XCA                DATA
 0002:00000174 00000004H .CRT$XCZ                DATA
 0002:00000178 00000004H .CRT$XIA                DATA
 0002:0000017c 00000004H .CRT$XIAA               DATA
 0002:00000180 00000004H .CRT$XIZ                DATA
 0002:00000190 000007f0H .rdata                  DATA
 0002:00000980 00000064H .rdata$debug            DATA
 0002:000009f0 00000004H .rdata$sxdata           DATA
 0002:000009f4 00000004H .rtc$IAA                DATA
 0002:000009f8 00000004H .rtc$IMZ                DATA
 0002:000009fc 00000004H .rtc$IZZ                DATA
 0002:00000a00 00000004H .rtc$TAA                DATA
 0002:00000a04 00000004H .rtc$TMZ                DATA
 0002:00000a08 00000004H .rtc$TZZ                DATA
 0002:00000a10 000000a4H .xdata$x                DATA
 0002:00000ab4 0000003cH .idata$2                DATA
 0002:00000af0 00000014H .idata$3                DATA
 0002:00000b04 00000170H .idata$4                DATA
 0002:00000c74 0000061aH .idata$6                DATA
 0002:00001290 00000ea2H .edata                  DATA
 0003:00000000 000000c8H .data                   DATA
 0003:000000e0 00000450H .bss                    DATA
 0004:00000000 00000058H .rsrc$01                DATA
 0004:00000060 00000410H .rsrc$02                DATA

  Address         Publics by Value              Rva+Base       Lib:Object

 0000:00000001       ___safe_se_handler_count   00000001     <absolute>
 0000:00000000       ___ImageBase               10000000     <linker-defined>
 0001:00000000       _ptw32_InterlockedCompareExchange@12 10001000 f   pthread.obj
 0001:00000050       _ptw32_InterlockedExchange@8 10001050 f   pthread.obj
 0001:000000a0       _ptw32_mcs_flag_set        100010a0 f   pthread.obj
 0001:000000f0       _ptw32_mcs_flag_wait       100010f0 f   pthread.obj
 0001:00000190       _ptw32_mcs_lock_acquire    10001190 f   pthread.obj
 0001:00000220       _ptw32_mcs_lock_release    10001220 f   pthread.obj
 0001:000002d0       _ptw32_is_attr             100012d0 f   pthread.obj
 0001:00000310       _ptw32_processInitialize   10001310 f   pthread.obj
 0001:000003f0       _ptw32_processTerminate    100013f0 f   pthread.obj
 0001:00000550       _ptw32_threadStart@4       10001550 f   pthread.obj
 0001:000006a0       _ptw32_threadDestroy       100016a0 f   pthread.obj
 0001:00000790       _ptw32_tkAssocCreate       10001790 f   pthread.obj
 0001:00000860       _ptw32_tkAssocDestroy      10001860 f   pthread.obj
 0001:00000960       _ptw32_callUserDestroyRoutines 10001960 f   pthread.obj
 0001:00000b30       _ptw32_semwait             10001b30 f   pthread.obj
 0001:00000c10       _ptw32_relmillisecs        10001c10 f   pthread.obj
 0001:00000d60       _ptw32_throw               10001d60 f   pthread.obj
 0001:00000e40       _ptw32_pop_cleanup_all     10001e40 f   pthread.obj
 0001:00000e60       _ptw32_get_exception_services_code 10001e60 f   pthread.obj
 0001:00000e70       _ptw32_getprocessors       10001e70 f   pthread.obj
 0001:00000f70       _pthread_attr_init         10001f70 f   pthread.obj
 0001:00001010       _pthread_attr_destroy      10002010 f   pthread.obj
 0001:00001070       _pthread_attr_getdetachstate 10002070 f   pthread.obj
 0001:000010c0       _pthread_attr_setdetachstate 100020c0 f   pthread.obj
 0001:00001110       _pthread_attr_getstackaddr 10002110 f   pthread.obj
 0001:00001150       _pthread_attr_setstackaddr 10002150 f   pthread.obj
 0001:00001180       _pthread_attr_getstacksize 10002180 f   pthread.obj
 0001:000011c0       _pthread_attr_setstacksize 100021c0 f   pthread.obj
 0001:000011f0       _pthread_attr_getscope     100021f0 f   pthread.obj
 0001:00001210       _pthread_attr_setscope     10002210 f   pthread.obj
 0001:00001250       _pthread_barrier_init      10002250 f   pthread.obj
 0001:00001360       _pthread_barrier_destroy   10002360 f   pthread.obj
 0001:00001420       _pthread_barrier_wait      10002420 f   pthread.obj
 0001:00001520       _pthread_barrierattr_init  10002520 f   pthread.obj
 0001:00001590       _pthread_barrierattr_destroy 10002590 f   pthread.obj
 0001:00001600       _pthread_barrierattr_getpshared 10002600 f   pthread.obj
 0001:00001650       _pthread_barrierattr_setpshared 10002650 f   pthread.obj
 0001:000016b0       _pthread_setcancelstate    100026b0 f   pthread.obj
 0001:000017f0       _pthread_setcanceltype     100027f0 f   pthread.obj
 0001:00001930       _pthread_testcancel        10002930 f   pthread.obj
 0001:00001a30       _ptw32_RegisterCancelation 10002a30 f   pthread.obj
 0001:00001b10       _pthread_cancel            10002b10 f   pthread.obj
 0001:00001d50       _ptw32_pop_cleanup         10002d50 f   pthread.obj
 0001:00001dd0       _ptw32_push_cleanup        10002dd0 f   pthread.obj
 0001:00001e20       _ptw32_cond_check_need_init 10002e20 f   pthread.obj
 0001:00001ea0       _pthread_condattr_init     10002ea0 f   pthread.obj
 0001:00001f00       _pthread_condattr_destroy  10002f00 f   pthread.obj
 0001:00001f70       _pthread_condattr_getpshared 10002f70 f   pthread.obj
 0001:00001fc0       _pthread_condattr_setpshared 10002fc0 f   pthread.obj
 0001:00002020       _pthread_cond_init         10003020 f   pthread.obj
 0001:00002200       _pthread_cond_destroy      10003200 f   pthread.obj
 0001:000024a0       _pthread_cond_wait         100034a0 f   pthread.obj
 0001:00002800       _pthread_cond_timedwait    10003800 f   pthread.obj
 0001:00002830       _pthread_cond_signal       10003830 f   pthread.obj
 0001:00002a50       _pthread_cond_broadcast    10003a50 f   pthread.obj
 0001:00002a70       _pthread_create            10003a70 f   pthread.obj
 0001:00002cb0       _DllMain@12                10003cb0 f   pthread.obj
 0001:00002d30       _pthread_exit              10003d30 f   pthread.obj
 0001:00002d90       _pthread_kill              10003d90 f   pthread.obj
 0001:00002e20       _pthread_once              10003e20 f   pthread.obj
 0001:00002f50       _pthread_self              10003f50 f   pthread.obj
 0001:000030f0       _pthread_equal             100040f0 f   pthread.obj
 0001:00003140       _pthread_setconcurrency    10004140 f   pthread.obj
 0001:00003160       _pthread_getconcurrency    10004160 f   pthread.obj
 0001:00003170       _ptw32_new                 10004170 f   pthread.obj
 0001:000032e0       _ptw32_threadReusePop      100042e0 f   pthread.obj
 0001:000033c0       _ptw32_threadReusePush     100043c0 f   pthread.obj
 0001:000034c0       _pthreadCancelableWait     100044c0 f   pthread.obj
 0001:00003670       _pthreadCancelableTimedWait 10004670 f   pthread.obj
 0001:00003690       _ptw32_mutex_check_need_init 10004690 f   pthread.obj
 0001:00003750       _pthread_mutex_init        10004750 f   pthread.obj
 0001:00003880       _pthread_mutex_destroy     10004880 f   pthread.obj
 0001:000039e0       _pthread_mutexattr_init    100049e0 f   pthread.obj
 0001:00003a60       _pthread_mutexattr_destroy 10004a60 f   pthread.obj
 0001:00003ad0       _pthread_mutexattr_getpshared 10004ad0 f   pthread.obj
 0001:00003b20       _pthread_mutexattr_setpshared 10004b20 f   pthread.obj
 0001:00003b80       _pthread_mutexattr_settype 10004b80 f   pthread.obj
 0001:00003bf0       _pthread_mutexattr_gettype 10004bf0 f   pthread.obj
 0001:00003c40       _pthread_mutex_lock        10004c40 f   pthread.obj
 0001:00003e30       _pthread_mutex_timedlock   10004e30 f   pthread.obj
 0001:000040a0       _pthread_mutex_unlock      100050a0 f   pthread.obj
 0001:000041e0       _pthread_mutex_trylock     100051e0 f   pthread.obj
 0001:000042c0       _pthread_mutexattr_setkind_np 100052c0 f   pthread.obj
 0001:000042e0       _pthread_mutexattr_getkind_np 100052e0 f   pthread.obj
 0001:00004300       _pthread_getw32threadhandle_np 10005300 f   pthread.obj
 0001:00004310       _pthread_delay_np          10005310 f   pthread.obj
 0001:000044d0       _pthread_num_processors_np 100054d0 f   pthread.obj
 0001:00004540       _pthread_win32_process_attach_np 10005540 f   pthread.obj
 0001:000047c0       _pthread_win32_process_detach_np 100057c0 f   pthread.obj
 0001:000048c0       _pthread_win32_thread_attach_np 100058c0 f   pthread.obj
 0001:000048d0       _pthread_win32_thread_detach_np 100058d0 f   pthread.obj
 0001:00004990       _pthread_win32_test_features_np 10005990 f   pthread.obj
 0001:000049b0       _pthread_timechange_handler_np 100059b0 f   pthread.obj
 0001:00004a70       _ptw32_rwlock_check_need_init 10005a70 f   pthread.obj
 0001:00004af0       _ptw32_rwlock_cancelwrwait 10005af0 f   pthread.obj
 0001:00004b50       _pthread_rwlock_init       10005b50 f   pthread.obj
 0001:00004ca0       _pthread_rwlock_destroy    10005ca0 f   pthread.obj
 0001:00004ed0       _pthread_rwlockattr_init   10005ed0 f   pthread.obj
 0001:00004f40       _pthread_rwlockattr_destroy 10005f40 f   pthread.obj
 0001:00004fb0       _pthread_rwlockattr_getpshared 10005fb0 f   pthread.obj
 0001:00005000       _pthread_rwlockattr_setpshared 10006000 f   pthread.obj
 0001:00005060       _pthread_rwlock_rdlock     10006060 f   pthread.obj
 0001:000051a0       _pthread_rwlock_timedrdlock 100061a0 f   pthread.obj
 0001:00005300       _pthread_rwlock_wrlock     10006300 f   pthread.obj
 0001:000054d0       _pthread_rwlock_timedwrlock 100064d0 f   pthread.obj
 0001:000056b0       _pthread_rwlock_unlock     100066b0 f   pthread.obj
 0001:000057d0       _pthread_rwlock_tryrdlock  100067d0 f   pthread.obj
 0001:00005910       _pthread_rwlock_trywrlock  10006910 f   pthread.obj
 0001:00005a90       _pthread_attr_setschedpolicy 10006a90 f   pthread.obj
 0001:00005ad0       _pthread_attr_getschedpolicy 10006ad0 f   pthread.obj
 0001:00005b20       _pthread_attr_setschedparam 10006b20 f   pthread.obj
 0001:00005ba0       _pthread_attr_getschedparam 10006ba0 f   pthread.obj
 0001:00005bf0       _pthread_attr_setinheritsched 10006bf0 f   pthread.obj
 0001:00005c40       _pthread_attr_getinheritsched 10006c40 f   pthread.obj
 0001:00005c80       _pthread_setschedparam     10006c80 f   pthread.obj
 0001:00005d00       _ptw32_setthreadpriority   10006d00 f   pthread.obj
 0001:00005df0       _pthread_getschedparam     10006df0 f   pthread.obj
 0001:00005e60       _sched_get_priority_max    10006e60 f   pthread.obj
 0001:00005ea0       _sched_get_priority_min    10006ea0 f   pthread.obj
 0001:00005ee0       _sched_setscheduler        10006ee0 f   pthread.obj
 0001:00005fa0       _sched_getscheduler        10006fa0 f   pthread.obj
 0001:00006040       _sched_yield               10007040 f   pthread.obj
 0001:00006070       _sem_init                  10007070 f   pthread.obj
 0001:000061a0       _sem_destroy               100071a0 f   pthread.obj
 0001:000062e0       _sem_trywait               100072e0 f   pthread.obj
 0001:000063c0       _sem_wait                  100073c0 f   pthread.obj
 0001:000065a0       _sem_timedwait             100075a0 f   pthread.obj
 0001:000067e0       _sem_post                  100077e0 f   pthread.obj
 0001:00006900       _sem_post_multiple         10007900 f   pthread.obj
 0001:00006a50       _sem_getvalue              10007a50 f   pthread.obj
 0001:00006b30       _sem_open                  10007b30 f   pthread.obj
 0001:00006b60       _sem_close                 10007b60 f   pthread.obj
 0001:00006b90       _sem_unlink                10007b90 f   pthread.obj
 0001:00006bc0       _ptw32_spinlock_check_need_init 10007bc0 f   pthread.obj
 0001:00006c40       _pthread_spin_init         10007c40 f   pthread.obj
 0001:00006dc0       _pthread_spin_destroy      10007dc0 f   pthread.obj
 0001:00006ec0       _pthread_spin_lock         10007ec0 f   pthread.obj
 0001:00006f70       _pthread_spin_unlock       10007f70 f   pthread.obj
 0001:00007010       _pthread_spin_trylock      10008010 f   pthread.obj
 0001:000070d0       _pthread_detach            100080d0 f   pthread.obj
 0001:000071f0       _pthread_join              100081f0 f   pthread.obj
 0001:00007340       _pthread_key_create        10008340 f   pthread.obj
 0001:00007400       _pthread_key_delete        10008400 f   pthread.obj
 0001:00007540       _pthread_setspecific       10008540 f   pthread.obj
 0001:00007700       _pthread_getspecific       10008700 f   pthread.obj
 0001:0000778c       _WSASetLastError@4         1000878c f   ws2_32:WS2_32.dll
 0001:00007792       _WSAGetLastError@0         10008792 f   ws2_32:WS2_32.dll
 0001:00007798       _SetEvent@4                10008798 f   kernel32:KERNEL32.dll
 0001:0000779e       _CloseHandle@4             1000879e f   kernel32:KERNEL32.dll
 0001:000077a4       _WaitForSingleObject@8     100087a4 f   kernel32:KERNEL32.dll
 0001:000077aa       _CreateEventA@16           100087aa f   kernel32:KERNEL32.dll
 0001:000077b0       _InterlockedExchangeAdd@8  100087b0 f   kernel32:KERNEL32.dll
 0001:000077b6       _InterlockedExchange@8     100087b6 f   kernel32:KERNEL32.dll
 0001:000077bc       _InitializeCriticalSection@4 100087bc f   kernel32:KERNEL32.dll
 0001:000077c2       _DeleteCriticalSection@4   100087c2 f   kernel32:KERNEL32.dll
 0001:000077c8       _LeaveCriticalSection@4    100087c8 f   kernel32:KERNEL32.dll
 0001:000077ce       _EnterCriticalSection@4    100087ce f   kernel32:KERNEL32.dll
 0001:000077d4       _TlsSetValue@8             100087d4 f   kernel32:KERNEL32.dll
 0001:000077da       _TlsGetValue@4             100087da f   kernel32:KERNEL32.dll
 0001:000077e0       _Sleep@4                   100087e0 f   kernel32:KERNEL32.dll
 0001:000077e6       _GetProcessAffinityMask@12 100087e6 f   kernel32:KERNEL32.dll
 0001:000077ec       _GetCurrentProcess@0       100087ec f   kernel32:KERNEL32.dll
 0001:000077f2       _InterlockedDecrement@4    100087f2 f   kernel32:KERNEL32.dll
 0001:000077f8       _ResetEvent@4              100087f8 f   kernel32:KERNEL32.dll
 0001:000077fe       _SetThreadContext@8        100087fe f   kernel32:KERNEL32.dll
 0001:00007804       _GetThreadContext@8        10008804 f   kernel32:KERNEL32.dll
 0001:0000780a       _ResumeThread@4            1000880a f   kernel32:KERNEL32.dll
 0001:00007810       _SuspendThread@4           10008810 f   kernel32:KERNEL32.dll
 0001:00007816       _GetThreadPriority@4       10008816 f   kernel32:KERNEL32.dll
 0001:0000781c       _DuplicateHandle@28        1000881c f   kernel32:KERNEL32.dll
 0001:00007822       _GetCurrentThread@0        10008822 f   kernel32:KERNEL32.dll
 0001:00007828       _GetCurrentThreadId@0      10008828 f   kernel32:KERNEL32.dll
 0001:0000782e       _WaitForMultipleObjects@16 1000882e f   kernel32:KERNEL32.dll
 0001:00007834       _FreeLibrary@4             10008834 f   kernel32:KERNEL32.dll
 0001:0000783a       _GetProcAddress@8          1000883a f   kernel32:KERNEL32.dll
 0001:00007840       _LoadLibraryA@4            10008840 f   kernel32:KERNEL32.dll
 0001:00007846       _SetThreadPriority@8       10008846 f   kernel32:KERNEL32.dll
 0001:0000784c       _GetLastError@0            1000884c f   kernel32:KERNEL32.dll
 0001:00007852       _OpenProcess@12            10008852 f   kernel32:KERNEL32.dll
 0001:00007858       _GetCurrentProcessId@0     10008858 f   kernel32:KERNEL32.dll
 0001:0000785e       _CreateSemaphoreA@16       1000885e f   kernel32:KERNEL32.dll
 0001:00007864       _ReleaseSemaphore@12       10008864 f   kernel32:KERNEL32.dll
 0001:0000786a       _TlsAlloc@0                1000886a f   kernel32:KERNEL32.dll
 0001:00007870       _TlsFree@4                 10008870 f   kernel32:KERNEL32.dll
 0001:00007876       _SetLastError@4            10008876 f   kernel32:KERNEL32.dll
 0001:00007880       __RTC_CheckEsp             10008880 f   MSVCRTD:_stack_.obj
 0001:000078b0       @_RTC_CheckStackVars@8     100088b0 f   MSVCRTD:_stack_.obj
 0001:00007910       @_RTC_AllocaHelper@12      10008910 f   MSVCRTD:_stack_.obj
 0001:00007950       @_RTC_CheckStackVars2@12   10008950 f   MSVCRTD:_stack_.obj
 0001:00007a30       __RTC_InitBase             10008a30 f   MSVCRTD:_init_.obj
 0001:00007a60       __RTC_Shutdown             10008a60 f   MSVCRTD:_init_.obj
 0001:00007a74       _free                      10008a74 f   MSVCRTD:MSVCR90D.dll
 0001:00007a7a       __endthreadex              10008a7a f   MSVCRTD:MSVCR90D.dll
 0001:00007a80       __setjmp3                  10008a80 f   MSVCRTD:MSVCR90D.dll
 0001:00007a86       _memcpy                    10008a86 f   MSVCRTD:MSVCR90D.dll
 0001:00007a8c       _calloc                    10008a8c f   MSVCRTD:MSVCR90D.dll
 0001:00007a92       __errno                    10008a92 f   MSVCRTD:MSVCR90D.dll
 0001:00007a98       __ftime64                  10008a98 f   MSVCRTD:MSVCR90D.dll
 0001:00007aa0       __alldiv                   10008aa0 f   MSVCRTD:lldiv.obj
 0001:00007b50       __allmul                   10008b50 f   MSVCRTD:llmul.obj
 0001:00007b84       _longjmp                   10008b84 f   MSVCRTD:MSVCR90D.dll
 0001:00007b8a       _exit                      10008b8a f   MSVCRTD:MSVCR90D.dll
 0001:00007b90       _malloc                    10008b90 f   MSVCRTD:MSVCR90D.dll
 0001:00007ba0       @__security_check_cookie@4 10008ba0 f   MSVCRTD:secchk.obj
 0001:00007bb0       __beginthreadex            10008bb0 f   MSVCRTD:MSVCR90D.dll
 0001:00007bb6       _memset                    10008bb6 f   MSVCRTD:MSVCR90D.dll
 0001:00007c40       __CRT_INIT@12              10008c40 f   MSVCRTD:crtdll.obj
 0001:00007f50       _NtCurrentTeb              10008f50 f i MSVCRTD:crtdll.obj
 0001:00007f60       __DllMainCRTStartup@12     10008f60 f   MSVCRTD:crtdll.obj
 0001:00008160       _DebuggerKnownHandle       10009160 f   MSVCRTD:_error_.obj
 0001:00008220       ?_RTC_Failure@@YAXPAXH@Z   10009220 f   MSVCRTD:_error_.obj
 0001:00008530       ?_RTC_StackFailure@@YAXPAXPBD@Z 10009530 f   MSVCRTD:_error_.obj
 0001:00008630       ?_RTC_AllocaFailure@@YAXPAXPAU_RTC_ALLOCA_NODE@@H@Z 10009630 f   MSVCRTD:_error_.obj
 0001:000087e0       __RTC_UninitUse            100097e0 f   MSVCRTD:_error_.obj
 0001:000088d0       __RTC_NumErrors            100098d0 f   MSVCRTD:_userapi_.obj
 0001:000088e0       __RTC_GetErrDesc           100098e0 f   MSVCRTD:_userapi_.obj
 0001:00008900       __RTC_SetErrorType         10009900 f   MSVCRTD:_userapi_.obj
 0001:00008930       __RTC_SetErrorFunc         10009930 f   MSVCRTD:_userapi_.obj
 0001:00008950       __RTC_SetErrorFuncW        10009950 f   MSVCRTD:_userapi_.obj
 0001:00008970       ?_RTC_GetErrorFunc@@YAP6AHHPBDH00ZZPBX@Z 10009970 f   MSVCRTD:_userapi_.obj
 0001:00008980       ?_RTC_GetErrorFuncW@@YAP6AHHPB_WH00ZZPBX@Z 10009980 f   MSVCRTD:_userapi_.obj
 0001:00008986       __CRT_RTC_INITW            10009986 f   MSVCRTD:MSVCR90D.dll
 0001:00008990       ___report_gsfailure        10009990 f   MSVCRTD:gs_report.obj
 0001:00008aa0       ___clean_type_info_names   10009aa0 f   MSVCRTD:tncleanup.obj
 0001:00008ac0       __onexit                   10009ac0 f   MSVCRTD:atonexit.obj
 0001:00008bd0       _atexit                    10009bd0 f   MSVCRTD:atonexit.obj
 0001:00008bf0       __RTC_Initialize           10009bf0 f   MSVCRTD:_initsect_.obj
 0001:00008c20       __RTC_Terminate            10009c20 f   MSVCRTD:_initsect_.obj
 0001:00008c46       __encode_pointer           10009c46 f   MSVCRTD:MSVCR90D.dll
 0001:00008c4c       __malloc_dbg               10009c4c f   MSVCRTD:MSVCR90D.dll
 0001:00008c52       __free_dbg                 10009c52 f   MSVCRTD:MSVCR90D.dll
 0001:00008c58       __encoded_null             10009c58 f   MSVCRTD:MSVCR90D.dll
 0001:00008c5e       __decode_pointer           10009c5e f   MSVCRTD:MSVCR90D.dll
 0001:00008c64       __CrtSetCheckCount         10009c64 f   MSVCRTD:MSVCR90D.dll
 0001:00008c70       __ValidateImageBase        10009c70 f   MSVCRTD:pesect.obj
 0001:00008cd0       __FindPESection            10009cd0 f   MSVCRTD:pesect.obj
 0001:00008d50       __IsNonwritableInCurrentImage 10009d50 f   MSVCRTD:pesect.obj
 0001:00008e62       __initterm                 10009e62 f   MSVCRTD:MSVCR90D.dll
 0001:00008e68       __initterm_e               10009e68 f   MSVCRTD:MSVCR90D.dll
 0001:00008e6e       __amsg_exit                10009e6e f   MSVCRTD:MSVCR90D.dll
 0001:00008e80       ___security_init_cookie    10009e80 f   MSVCRTD:gs_support.obj
 0001:00008f5c       ___CppXcptFilter           10009f5c f   MSVCRTD:MSVCR90D.dll
 0001:00008f70       __except_handler4          10009f70 f   MSVCRTD:chandler4gs.obj
 0001:00008fa0       ?_RTC_GetSrcLine@@YAHPAEPA_WKPAH1K@Z 10009fa0 f   MSVCRTD:_pdblkup_.obj
 0001:00009436       __crt_debugger_hook        1000a436 f   MSVCRTD:MSVCR90D.dll
 0001:0000943c       ___clean_type_info_names_internal 1000a43c f   MSVCRTD:MSVCR90D.dll
 0001:00009442       __unlock                   1000a442 f   MSVCRTD:MSVCR90D.dll
 0001:00009448       ___dllonexit               1000a448 f   MSVCRTD:MSVCR90D.dll
 0001:0000944e       __lock                     1000a44e f   MSVCRTD:MSVCR90D.dll
 0001:00009454       __except_handler4_common   1000a454 f   MSVCRTD:MSVCR90D.dll
 0001:0000945a       _InterlockedCompareExchange@12 1000a45a f   kernel32:KERNEL32.dll
 0001:00009460       _IsDebuggerPresent@0       1000a460 f   kernel32:KERNEL32.dll
 0001:00009466       _RaiseException@16         1000a466 f   kernel32:KERNEL32.dll
 0001:0000946c       _DebugBreak@0              1000a46c f   kernel32:KERNEL32.dll
 0001:00009472       _WideCharToMultiByte@32    1000a472 f   kernel32:KERNEL32.dll
 0001:00009478       _MultiByteToWideChar@24    1000a478 f   kernel32:KERNEL32.dll
 0001:0000947e       _lstrlenA@4                1000a47e f   kernel32:KERNEL32.dll
 0001:00009484       _TerminateProcess@8        1000a484 f   kernel32:KERNEL32.dll
 0001:0000948a       _UnhandledExceptionFilter@4 1000a48a f   kernel32:KERNEL32.dll
 0001:00009490       _SetUnhandledExceptionFilter@4 1000a490 f   kernel32:KERNEL32.dll
 0001:00009496       _QueryPerformanceCounter@4 1000a496 f   kernel32:KERNEL32.dll
 0001:0000949c       _GetTickCount@0            1000a49c f   kernel32:KERNEL32.dll
 0001:000094a2       _GetSystemTimeAsFileTime@4 1000a4a2 f   kernel32:KERNEL32.dll
 0001:000094a8       _HeapFree@12               1000a4a8 f   kernel32:KERNEL32.dll
 0001:000094ae       _HeapAlloc@12              1000a4ae f   kernel32:KERNEL32.dll
 0001:000094b4       _GetProcessHeap@0          1000a4b4 f   kernel32:KERNEL32.dll
 0001:000094ba       _GetModuleFileNameW@12     1000a4ba f   kernel32:KERNEL32.dll
 0001:000094c0       _VirtualQuery@12           1000a4c0 f   kernel32:KERNEL32.dll
 0002:00000000       __imp__VirtualQuery@12     1000b000     kernel32:KERNEL32.dll
 0002:00000004       __imp__GetModuleFileNameW@12 1000b004     kernel32:KERNEL32.dll
 0002:00000008       __imp__GetProcessHeap@0    1000b008     kernel32:KERNEL32.dll
 0002:0000000c       __imp__SetEvent@4          1000b00c     kernel32:KERNEL32.dll
 0002:00000010       __imp__CloseHandle@4       1000b010     kernel32:KERNEL32.dll
 0002:00000014       __imp__WaitForSingleObject@8 1000b014     kernel32:KERNEL32.dll
 0002:00000018       __imp__CreateEventA@16     1000b018     kernel32:KERNEL32.dll
 0002:0000001c       __imp__InterlockedExchangeAdd@8 1000b01c     kernel32:KERNEL32.dll
 0002:00000020       __imp__InterlockedExchange@8 1000b020     kernel32:KERNEL32.dll
 0002:00000024       __imp__InitializeCriticalSection@4 1000b024     kernel32:KERNEL32.dll
 0002:00000028       __imp__DeleteCriticalSection@4 1000b028     kernel32:KERNEL32.dll
 0002:0000002c       __imp__LeaveCriticalSection@4 1000b02c     kernel32:KERNEL32.dll
 0002:00000030       __imp__EnterCriticalSection@4 1000b030     kernel32:KERNEL32.dll
 0002:00000034       __imp__TlsSetValue@8       1000b034     kernel32:KERNEL32.dll
 0002:00000038       __imp__TlsGetValue@4       1000b038     kernel32:KERNEL32.dll
 0002:0000003c       __imp__Sleep@4             1000b03c     kernel32:KERNEL32.dll
 0002:00000040       __imp__GetProcessAffinityMask@12 1000b040     kernel32:KERNEL32.dll
 0002:00000044       __imp__GetCurrentProcess@0 1000b044     kernel32:KERNEL32.dll
 0002:00000048       __imp__InterlockedDecrement@4 1000b048     kernel32:KERNEL32.dll
 0002:0000004c       __imp__ResetEvent@4        1000b04c     kernel32:KERNEL32.dll
 0002:00000050       __imp__SetThreadContext@8  1000b050     kernel32:KERNEL32.dll
 0002:00000054       __imp__GetThreadContext@8  1000b054     kernel32:KERNEL32.dll
 0002:00000058       __imp__ResumeThread@4      1000b058     kernel32:KERNEL32.dll
 0002:0000005c       __imp__SuspendThread@4     1000b05c     kernel32:KERNEL32.dll
 0002:00000060       __imp__GetThreadPriority@4 1000b060     kernel32:KERNEL32.dll
 0002:00000064       __imp__DuplicateHandle@28  1000b064     kernel32:KERNEL32.dll
 0002:00000068       __imp__GetCurrentThread@0  1000b068     kernel32:KERNEL32.dll
 0002:0000006c       __imp__GetCurrentThreadId@0 1000b06c     kernel32:KERNEL32.dll
 0002:00000070       __imp__WaitForMultipleObjects@16 1000b070     kernel32:KERNEL32.dll
 0002:00000074       __imp__FreeLibrary@4       1000b074     kernel32:KERNEL32.dll
 0002:00000078       __imp__GetProcAddress@8    1000b078     kernel32:KERNEL32.dll
 0002:0000007c       __imp__LoadLibraryA@4      1000b07c     kernel32:KERNEL32.dll
 0002:00000080       __imp__SetThreadPriority@8 1000b080     kernel32:KERNEL32.dll
 0002:00000084       __imp__GetLastError@0      1000b084     kernel32:KERNEL32.dll
 0002:00000088       __imp__OpenProcess@12      1000b088     kernel32:KERNEL32.dll
 0002:0000008c       __imp__GetCurrentProcessId@0 1000b08c     kernel32:KERNEL32.dll
 0002:00000090       __imp__CreateSemaphoreA@16 1000b090     kernel32:KERNEL32.dll
 0002:00000094       __imp__ReleaseSemaphore@12 1000b094     kernel32:KERNEL32.dll
 0002:00000098       __imp__TlsAlloc@0          1000b098     kernel32:KERNEL32.dll
 0002:0000009c       __imp__TlsFree@4           1000b09c     kernel32:KERNEL32.dll
 0002:000000a0       __imp__SetLastError@4      1000b0a0     kernel32:KERNEL32.dll
 0002:000000a4       __imp__HeapFree@12         1000b0a4     kernel32:KERNEL32.dll
 0002:000000a8       __imp__GetSystemTimeAsFileTime@4 1000b0a8     kernel32:KERNEL32.dll
 0002:000000ac       __imp__HeapAlloc@12        1000b0ac     kernel32:KERNEL32.dll
 0002:000000b0       __imp__GetTickCount@0      1000b0b0     kernel32:KERNEL32.dll
 0002:000000b4       __imp__QueryPerformanceCounter@4 1000b0b4     kernel32:KERNEL32.dll
 0002:000000b8       __imp__SetUnhandledExceptionFilter@4 1000b0b8     kernel32:KERNEL32.dll
 0002:000000bc       __imp__UnhandledExceptionFilter@4 1000b0bc     kernel32:KERNEL32.dll
 0002:000000c0       __imp__TerminateProcess@8  1000b0c0     kernel32:KERNEL32.dll
 0002:000000c4       __imp__lstrlenA@4          1000b0c4     kernel32:KERNEL32.dll
 0002:000000c8       __imp__MultiByteToWideChar@24 1000b0c8     kernel32:KERNEL32.dll
 0002:000000cc       __imp__WideCharToMultiByte@32 1000b0cc     kernel32:KERNEL32.dll
 0002:000000d0       __imp__DebugBreak@0        1000b0d0     kernel32:KERNEL32.dll
 0002:000000d4       __imp__RaiseException@16   1000b0d4     kernel32:KERNEL32.dll
 0002:000000d8       __imp__IsDebuggerPresent@0 1000b0d8     kernel32:KERNEL32.dll
 0002:000000dc       __imp__InterlockedCompareExchange@12 1000b0dc     kernel32:KERNEL32.dll
 0002:000000e0       \177KERNEL32_NULL_THUNK_DATA 1000b0e0     kernel32:KERNEL32.dll
 0002:000000e4       __imp___free_dbg           1000b0e4     MSVCRTD:MSVCR90D.dll
 0002:000000e8       __imp___encoded_null       1000b0e8     MSVCRTD:MSVCR90D.dll
 0002:000000ec       __imp___decode_pointer     1000b0ec     MSVCRTD:MSVCR90D.dll
 0002:000000f0       __imp___CrtSetCheckCount   1000b0f0     MSVCRTD:MSVCR90D.dll
 0002:000000f4       __imp___initterm           1000b0f4     MSVCRTD:MSVCR90D.dll
 0002:000000f8       __imp___initterm_e         1000b0f8     MSVCRTD:MSVCR90D.dll
 0002:000000fc       __imp___amsg_exit          1000b0fc     MSVCRTD:MSVCR90D.dll
 0002:00000100       __imp___adjust_fdiv        1000b100     MSVCRTD:MSVCR90D.dll
 0002:00000104       __imp____CppXcptFilter     1000b104     MSVCRTD:MSVCR90D.dll
 0002:00000108       __imp___crt_debugger_hook  1000b108     MSVCRTD:MSVCR90D.dll
 0002:0000010c       __imp____clean_type_info_names_internal 1000b10c     MSVCRTD:MSVCR90D.dll
 0002:00000110       __imp___unlock             1000b110     MSVCRTD:MSVCR90D.dll
 0002:00000114       __imp____dllonexit         1000b114     MSVCRTD:MSVCR90D.dll
 0002:00000118       __imp___lock               1000b118     MSVCRTD:MSVCR90D.dll
 0002:0000011c       __imp___onexit             1000b11c     MSVCRTD:MSVCR90D.dll
 0002:00000120       __imp___except_handler4_common 1000b120     MSVCRTD:MSVCR90D.dll
 0002:00000124       __imp___malloc_dbg         1000b124     MSVCRTD:MSVCR90D.dll
 0002:00000128       __imp___encode_pointer     1000b128     MSVCRTD:MSVCR90D.dll
 0002:0000012c       __imp___CRT_RTC_INITW      1000b12c     MSVCRTD:MSVCR90D.dll
 0002:00000130       __imp__memset              1000b130     MSVCRTD:MSVCR90D.dll
 0002:00000134       __imp___beginthreadex      1000b134     MSVCRTD:MSVCR90D.dll
 0002:00000138       __imp__malloc              1000b138     MSVCRTD:MSVCR90D.dll
 0002:0000013c       __imp__exit                1000b13c     MSVCRTD:MSVCR90D.dll
 0002:00000140       __imp__longjmp             1000b140     MSVCRTD:MSVCR90D.dll
 0002:00000144       __imp___ftime64            1000b144     MSVCRTD:MSVCR90D.dll
 0002:00000148       __imp___errno              1000b148     MSVCRTD:MSVCR90D.dll
 0002:0000014c       __imp__calloc              1000b14c     MSVCRTD:MSVCR90D.dll
 0002:00000150       __imp__memcpy              1000b150     MSVCRTD:MSVCR90D.dll
 0002:00000154       __imp___endthreadex        1000b154     MSVCRTD:MSVCR90D.dll
 0002:00000158       __imp__free                1000b158     MSVCRTD:MSVCR90D.dll
 0002:0000015c       __imp___setjmp3            1000b15c     MSVCRTD:MSVCR90D.dll
 0002:00000160       \177MSVCR90D_NULL_THUNK_DATA 1000b160     MSVCRTD:MSVCR90D.dll
 0002:00000164       __imp__WSAGetLastError@0   1000b164     ws2_32:WS2_32.dll
 0002:00000168       __imp__WSASetLastError@4   1000b168     ws2_32:WS2_32.dll
 0002:0000016c       \177WS2_32_NULL_THUNK_DATA 1000b16c     ws2_32:WS2_32.dll
 0002:00000170       ___xc_a                    1000b170     MSVCRTD:cinitexe.obj
 0002:00000174       ___xc_z                    1000b174     MSVCRTD:cinitexe.obj
 0002:00000178       ___xi_a                    1000b178     MSVCRTD:cinitexe.obj
 0002:00000180       ___xi_z                    1000b180     MSVCRTD:cinitexe.obj
 0002:000001ac       __pDefaultRawDllMain       1000b1ac     MSVCRTD:crtdll.obj
 0002:000001ac       __pRawDllMain              1000b1ac     MSVCRTD:crtdll.obj
 0002:000001b0       ??_C@_0DA@FJPPCPEH@f?3?2dd?2vctools?2crt_bld?2self_x86?2c@ 1000b1b0     MSVCRTD:crtdll.obj
 0002:000001e0       ??_C@_0BO@GNIAFIKK@Unknown?5Runtime?5Check?5Error?6?$AN?$AA@ 1000b1e0     MSVCRTD:_error_.obj
 0002:00000200       ??_C@_0CM@NGINOKPC@Stack?5memory?5around?5_alloca?5was?5@ 1000b200     MSVCRTD:_error_.obj
 0002:0000022c       ??_C@_0DG@HKJMLLLP@A?5local?5variable?5was?5used?5before@ 1000b22c     MSVCRTD:_error_.obj
 0002:00000264       ??_C@_0BN@FFOINMNJ@Stack?5memory?5was?5corrupted?6?$AN?$AA@ 1000b264     MSVCRTD:_error_.obj
 0002:00000288       ??_C@_0BBN@GPMLNJCF@A?5cast?5to?5a?5smaller?5data?5type?5ha@ 1000b288     MSVCRTD:_error_.obj
 0002:000003a8       ??_C@_0NN@NGPKDKPD@The?5value?5of?5ESP?5was?5not?5properl@ 1000b3a8     MSVCRTD:_error_.obj
 0002:00000524       ??_C@_0CA@IODNCDPG@Run?9Time?5Check?5Failure?5?$CD?$CFd?5?9?5?$CFs?$AA@ 1000b524     MSVCRTD:_error_.obj
 0002:00000544       ??_C@_0BE@GNBOBNCK@Unknown?5Module?5Name?$AA@ 1000b544     MSVCRTD:_error_.obj
 0002:00000558       ??_C@_0BB@PFFGGCJP@Unknown?5Filename?$AA@ 1000b558     MSVCRTD:_error_.obj
 0002:00000570       ??_C@_1EA@NFKNIFJP@?$AAR?$AAu?$AAn?$AA?9?$AAT?$AAi?$AAm?$AAe?$AA?5?$AAC?$AAh?$AAe?$AAc?$AAk?$AA?5?$AAF?$AAa?$AAi?$AAl?$AAu?$AAr?$AAe?$AA?5?$AA?$CD?$AA?$CF?$AAd?$AA?5?$AA?9?$AA?5?$AA?$CF?$AAs?$AA?$AA@ 1000b570     MSVCRTD:_error_.obj
 0002:000005b0       ??_C@_1GM@OLMCBDMB@?$AAR?$AAu?$AAn?$AAt?$AAi?$AAm?$AAe?$AA?5?$AAC?$AAh?$AAe?$AAc?$AAk?$AA?5?$AAE?$AAr?$AAr?$AAo?$AAr?$AA?4?$AA?6?$AA?$AN?$AA?5?$AAU?$AAn?$AAa?$AAb?$AAl?$AAe?$AA?5?$AAt?$AAo@ 1000b5b0     MSVCRTD:_error_.obj
 0002:0000061c       ??_C@_0CG@IAFNJNEE@Stack?5corrupted?5near?5unknown?5var@ 1000b61c     MSVCRTD:_error_.obj
 0002:00000648       ??_C@_0EJ@LJKNEOLN@Stack?5area?5around?5_alloca?5memory@ 1000b648     MSVCRTD:_error_.obj
 0002:00000694       ??_C@_08KJEDNCKC@?$CFs?$CFs?$CFs?$CFs?$AA@ 1000b694     MSVCRTD:_error_.obj
 0002:000006a0       ??_C@_02LLMPMKNF@?$DO?5?$AA@ 1000b6a0     MSVCRTD:_error_.obj
 0002:000006a4       ??_C@_01EEMJAFIK@?6?$AA@   1000b6a4     MSVCRTD:_error_.obj
 0002:000006a8       ??_C@_0BC@KIBAILCI@?$CFs?$CFs?$CFp?$CFs?$CFld?$CFs?$CFd?$CFs?$AA@ 1000b6a8     MSVCRTD:_error_.obj
 0002:000006c0       ??_C@_0EI@CLEPFNGI@Stack?5area?5around?5_alloca?5memory@ 1000b6c0     MSVCRTD:_error_.obj
 0002:00000708       ??_C@_0N@MHFFIMFG@?6Address?3?50x?$AA@ 1000b708     MSVCRTD:_error_.obj
 0002:00000718       ??_C@_07DFDJCKFN@?6Size?3?5?$AA@ 1000b718     MSVCRTD:_error_.obj
 0002:00000720       ??_C@_0CK@DKGBICFE@?6Allocation?5number?5within?5this?5f@ 1000b720     MSVCRTD:_error_.obj
 0002:0000074c       ??_C@_08OMAHNMHJ@?6Data?3?5?$DM?$AA@ 1000b74c     MSVCRTD:_error_.obj
 0002:00000758       ??_C@_09FOPFMPEJ@wsprintfA?$AA@ 1000b758     MSVCRTD:_error_.obj
 0002:00000764       ??_C@_0L@GMPLCCII@user32?4dll?$AA@ 1000b764     MSVCRTD:_error_.obj
 0002:00000770       ??_C@_05MKKEDADM@?$CF?42X?5?$AA@ 1000b770     MSVCRTD:_error_.obj
 0002:00000778       ??_C@_0DE@OHJBPMBP@A?5variable?5is?5being?5used?5without@ 1000b778     MSVCRTD:_error_.obj
 0002:000007ac       ??_C@_0BP@OGBCLIBO@Stack?5around?5_alloca?5corrupted?$AA@ 1000b7ac     MSVCRTD:_userapi_.obj
 0002:000007cc       ??_C@_0CK@CNLNOEPB@Local?5variable?5used?5before?5initi@ 1000b7cc     MSVCRTD:_userapi_.obj
 0002:000007f8       ??_C@_0BI@CIGMDCBH@Stack?5memory?5corruption?$AA@ 1000b7f8     MSVCRTD:_userapi_.obj
 0002:00000810       ??_C@_0CK@FEGOIOPB@Cast?5to?5smaller?5type?5causing?5los@ 1000b810     MSVCRTD:_userapi_.obj
 0002:0000083c       ??_C@_0BJ@HEGAHDFO@Stack?5pointer?5corruption?$AA@ 1000b83c     MSVCRTD:_userapi_.obj
 0002:00000874       ?ProcessDetach@NativeDll@<CrtImplementationDetails>@@0IB 1000b874     MSVCRTD:tncleanup.obj
 0002:00000878       ?ProcessAttach@NativeDll@<CrtImplementationDetails>@@0IB 1000b878     MSVCRTD:tncleanup.obj
 0002:0000087c       ?ThreadAttach@NativeDll@<CrtImplementationDetails>@@0IB 1000b87c     MSVCRTD:tncleanup.obj
 0002:00000880       ?ThreadDetach@NativeDll@<CrtImplementationDetails>@@0IB 1000b880     MSVCRTD:tncleanup.obj
 0002:00000884       ?ProcessVerifier@NativeDll@<CrtImplementationDetails>@@0IB 1000b884     MSVCRTD:tncleanup.obj
 0002:00000888       ??_C@_0M@EKFFODEC@MSPDB80?4DLL?$AA@ 1000b888     MSVCRTD:_pdblkup_.obj
 0002:00000894       ??_C@_01KDCPPGHE@r?$AA@    1000b894     MSVCRTD:_pdblkup_.obj
 0002:00000898       ??_C@_0BB@KCIACLNC@PDBOpenValidate5?$AA@ 1000b898     MSVCRTD:_pdblkup_.obj
 0002:000008ac       ??_C@_0BF@BMIHBHCA@EnvironmentDirectory?$AA@ 1000b8ac     MSVCRTD:_pdblkup_.obj
 0002:000008c4       ??_C@_0CN@JNNIHDGH@SOFTWARE?2Microsoft?2VisualStudio?2@ 1000b8c4     MSVCRTD:_pdblkup_.obj
 0002:000008f4       ??_C@_0M@HLOHPNFA@RegCloseKey?$AA@ 1000b8f4     MSVCRTD:_pdblkup_.obj
 0002:00000900       ??_C@_0BB@HHEIPGME@RegQueryValueExA?$AA@ 1000b900     MSVCRTD:_pdblkup_.obj
 0002:00000914       ??_C@_0O@DCOGKJGG@RegOpenKeyExA?$AA@ 1000b914     MSVCRTD:_pdblkup_.obj
 0002:00000924       ??_C@_0N@JJPEKNFO@ADVAPI32?4DLL?$AA@ 1000b924     MSVCRTD:_pdblkup_.obj
 0002:00000938       __load_config_used         1000b938     MSVCRTD:loadcfg.obj
 0002:000009f0       ___safe_se_handler_table   1000b9f0     <linker-defined>
 0002:000009f4       ___rtc_iaa                 1000b9f4     MSVCRTD:_initsect_.obj
 0002:000009fc       ___rtc_izz                 1000b9fc     MSVCRTD:_initsect_.obj
 0002:00000a00       ___rtc_taa                 1000ba00     MSVCRTD:_initsect_.obj
 0002:00000a08       ___rtc_tzz                 1000ba08     MSVCRTD:_initsect_.obj
 0002:00000ab4       __IMPORT_DESCRIPTOR_WS2_32 1000bab4     ws2_32:WS2_32.dll
 0002:00000ac8       __IMPORT_DESCRIPTOR_KERNEL32 1000bac8     kernel32:KERNEL32.dll
 0002:00000adc       __IMPORT_DESCRIPTOR_MSVCR90D 1000badc     MSVCRTD:MSVCR90D.dll
 0002:00000af0       __NULL_IMPORT_DESCRIPTOR   1000baf0     ws2_32:WS2_32.dll
 0003:00000000       _ptw32_threadReuseTop      1000e000     pthread.obj
 0003:00000004       _ptw32_threadReuseBottom   1000e004     pthread.obj
 0003:00000008       _ptw32_smp_system          1000e008     pthread.obj
 0003:000000a0       ___security_cookie         1000e0a0     MSVCRTD:gs_cookie.obj
 0003:000000a4       ___security_cookie_complement 1000e0a4     MSVCRTD:gs_cookie.obj
 0003:000000a8       ?_RTC_ErrorLevels@@3PAHA   1000e0a8     MSVCRTD:_error_.obj
 0003:000000bc       ___native_dllmain_reason   1000e0bc     MSVCRTD:natstart.obj
 0003:000000c0       ___native_vcclrit_reason   1000e0c0     MSVCRTD:natstart.obj
 0003:000000e8       _ptw32_processInitialized  1000e0e8     pthread.obj
 0003:000000ec       _ptw32_selfThreadKey       1000e0ec     pthread.obj
 0003:000000f0       _ptw32_cleanupKey          1000e0f0     pthread.obj
 0003:000000f4       _ptw32_cond_list_head      1000e0f4     pthread.obj
 0003:000000f8       _ptw32_cond_list_tail      1000e0f8     pthread.obj
 0003:000000fc       _ptw32_concurrency         1000e0fc     pthread.obj
 0003:00000100       _ptw32_features            1000e100     pthread.obj
 0003:00000104       _ptw32_interlocked_compare_exchange 1000e104     pthread.obj
 0003:00000108       _ptw32_register_cancelation 1000e108     pthread.obj
 0003:00000114       ?wsprintffp@@3P6AHPADPBDZZA 1000e114     MSVCRTD:_error_.obj
 0003:00000444       ?__type_info_root_node@@3U__type_info_node@@A 1000e444     MSVCRTD:tncleanup.obj
 0003:00000460       _ptw32_spinlock_test_init_lock 1000e460     <common>
 0003:00000480       _ptw32_cond_list_lock      1000e480     <common>
 0003:000004a0       _ptw32_rwlock_test_init_lock 1000e4a0     <common>
 0003:000004c0       _ptw32_thread_reuse_lock   1000e4c0     <common>
 0003:000004e0       _ptw32_cond_test_init_lock 1000e4e0     <common>
 0003:00000500       _ptw32_mutex_test_init_lock 1000e500     <common>
 0003:00000518       __adjust_fdiv              1000e518     <common>
 0003:0000051c       ___native_startup_state    1000e51c     <common>
 0003:00000520       ___native_startup_lock     1000e520     <common>
 0003:00000524       ___onexitend               1000e524     <common>
 0003:00000528       ___onexitbegin             1000e528     <common>
 0003:0000052c       ___dyn_tls_init_callback   1000e52c     <common>

 entry point at        0001:00007f60

 Static symbols

 0001:00001af0       _ptw32_cancel_self         10002af0 f   pthread.obj
 0001:00001d30       _ptw32_cancel_callback@4   10002d30 f   pthread.obj
 0001:000024c0       _ptw32_cond_timedwait      100034c0 f   pthread.obj
 0001:00002670       _ptw32_cond_wait_cleanup   10003670 f   pthread.obj
 0001:00002850       _ptw32_cond_unblock        10003850 f   pthread.obj
 0001:00002f20       _ptw32_once_on_init_cancel 10003f20 f   pthread.obj
 0001:000034e0       _ptw32_cancelable_wait     100044e0 f   pthread.obj
 0001:00004000       _ptw32_timed_eventwait     10005000 f   pthread.obj
 0001:00006520       _ptw32_sem_wait_cleanup    10007520 f   pthread.obj
 0001:00006750       _ptw32_sem_timedwait_cleanup 10007750 f   pthread.obj
 0001:00007bc0       _pre_c_init                10008bc0 f   MSVCRTD:crtdll.obj
 0001:00007f90       ___DllMainCRTStartup       10008f90 f   MSVCRTD:crtdll.obj
 0001:00008190       ?DebuggerProbe@@YAHK@Z     10009190 f   MSVCRTD:_error_.obj
 0001:00008280       ?failwithmessage@@YAXPAXHHPBD@Z 10009280 f   MSVCRTD:_error_.obj
 0001:00008490       ?DebuggerRuntime@@YAHKHPAXPB_W@Z 10009490 f   MSVCRTD:_error_.obj
 0001:00008770       ?_getMemBlockDataString@@YAXPAD00I@Z 10009770 f   MSVCRTD:_error_.obj
 0001:00009260       ?GetPdbDll@@YAPAUHINSTANCE__@@XZ 1000a260 f   MSVCRTD:_pdblkup_.obj

 Exports

  ordinal    name

        1    _pthreadCancelableTimedWait
               exported name: pthreadCancelableTimedWait
        2    _pthreadCancelableWait
               exported name: pthreadCancelableWait
        3    _pthread_attr_destroy
               exported name: pthread_attr_destroy
        4    _pthread_attr_getdetachstate
               exported name: pthread_attr_getdetachstate
        5    _pthread_attr_getinheritsched
               exported name: pthread_attr_getinheritsched
        6    _pthread_attr_getschedparam
               exported name: pthread_attr_getschedparam
        7    _pthread_attr_getschedpolicy
               exported name: pthread_attr_getschedpolicy
        8    _pthread_attr_getscope
               exported name: pthread_attr_getscope
        9    _pthread_attr_getstackaddr
               exported name: pthread_attr_getstackaddr
       10    _pthread_attr_getstacksize
               exported name: pthread_attr_getstacksize
       11    _pthread_attr_init
               exported name: pthread_attr_init
       12    _pthread_attr_setdetachstate
               exported name: pthread_attr_setdetachstate
       13    _pthread_attr_setinheritsched
               exported name: pthread_attr_setinheritsched
       14    _pthread_attr_setschedparam
               exported name: pthread_attr_setschedparam
       15    _pthread_attr_setschedpolicy
               exported name: pthread_attr_setschedpolicy
       16    _pthread_attr_setscope
               exported name: pthread_attr_setscope
       17    _pthread_attr_setstackaddr
               exported name: pthread_attr_setstackaddr
       18    _pthread_attr_setstacksize
               exported name: pthread_attr_setstacksize
       19    _pthread_barrier_destroy
               exported name: pthread_barrier_destroy
       20    _pthread_barrier_init
               exported name: pthread_barrier_init
       21    _pthread_barrier_wait
               exported name: pthread_barrier_wait
       22    _pthread_barrierattr_destroy
               exported name: pthread_barrierattr_destroy
       23    _pthread_barrierattr_getpshared
               exported name: pthread_barrierattr_getpshared
       24    _pthread_barrierattr_init
               exported name: pthread_barrierattr_init
       25    _pthread_barrierattr_setpshared
               exported name: pthread_barrierattr_setpshared
       26    _pthread_cancel
               exported name: pthread_cancel
       27    _pthread_cond_broadcast
               exported name: pthread_cond_broadcast
       28    _pthread_cond_destroy
               exported name: pthread_cond_destroy
       29    _pthread_cond_init
               exported name: pthread_cond_init
       30    _pthread_cond_signal
               exported name: pthread_cond_signal
       31    _pthread_cond_timedwait
               exported name: pthread_cond_timedwait
       32    _pthread_cond_wait
               exported name: pthread_cond_wait
       33    _pthread_condattr_destroy
               exported name: pthread_condattr_destroy
       34    _pthread_condattr_getpshared
               exported name: pthread_condattr_getpshared
       35    _pthread_condattr_init
               exported name: pthread_condattr_init
       36    _pthread_condattr_setpshared
               exported name: pthread_condattr_setpshared
       37    _pthread_create
               exported name: pthread_create
       38    _pthread_delay_np
               exported name: pthread_delay_np
       39    _pthread_detach
               exported name: pthread_detach
       40    _pthread_equal
               exported name: pthread_equal
       41    _pthread_exit
               exported name: pthread_exit
       42    _pthread_getconcurrency
               exported name: pthread_getconcurrency
       43    _pthread_getschedparam
               exported name: pthread_getschedparam
       44    _pthread_getspecific
               exported name: pthread_getspecific
       45    _pthread_getw32threadhandle_np
               exported name: pthread_getw32threadhandle_np
       46    _pthread_join
               exported name: pthread_join
       47    _pthread_key_create
               exported name: pthread_key_create
       48    _pthread_key_delete
               exported name: pthread_key_delete
       49    _pthread_kill
               exported name: pthread_kill
       50    _pthread_mutex_destroy
               exported name: pthread_mutex_destroy
       51    _pthread_mutex_init
               exported name: pthread_mutex_init
       52    _pthread_mutex_lock
               exported name: pthread_mutex_lock
       53    _pthread_mutex_timedlock
               exported name: pthread_mutex_timedlock
       54    _pthread_mutex_trylock
               exported name: pthread_mutex_trylock
       55    _pthread_mutex_unlock
               exported name: pthread_mutex_unlock
       56    _pthread_mutexattr_destroy
               exported name: pthread_mutexattr_destroy
       57    _pthread_mutexattr_getkind_np
               exported name: pthread_mutexattr_getkind_np
       58    _pthread_mutexattr_getpshared
               exported name: pthread_mutexattr_getpshared
       59    _pthread_mutexattr_gettype
               exported name: pthread_mutexattr_gettype
       60    _pthread_mutexattr_init
               exported name: pthread_mutexattr_init
       61    _pthread_mutexattr_setkind_np
               exported name: pthread_mutexattr_setkind_np
       62    _pthread_mutexattr_setpshared
               exported name: pthread_mutexattr_setpshared
       63    _pthread_mutexattr_settype
               exported name: pthread_mutexattr_settype
       64    _pthread_num_processors_np
               exported name: pthread_num_processors_np
       65    _pthread_once
               exported name: pthread_once
       66    _pthread_rwlock_destroy
               exported name: pthread_rwlock_destroy
       67    _pthread_rwlock_init
               exported name: pthread_rwlock_init
       68    _pthread_rwlock_rdlock
               exported name: pthread_rwlock_rdlock
       69    _pthread_rwlock_timedrdlock
               exported name: pthread_rwlock_timedrdlock
       70    _pthread_rwlock_timedwrlock
               exported name: pthread_rwlock_timedwrlock
       71    _pthread_rwlock_tryrdlock
               exported name: pthread_rwlock_tryrdlock
       72    _pthread_rwlock_trywrlock
               exported name: pthread_rwlock_trywrlock
       73    _pthread_rwlock_unlock
               exported name: pthread_rwlock_unlock
       74    _pthread_rwlock_wrlock
               exported name: pthread_rwlock_wrlock
       75    _pthread_rwlockattr_destroy
               exported name: pthread_rwlockattr_destroy
       76    _pthread_rwlockattr_getpshared
               exported name: pthread_rwlockattr_getpshared
       77    _pthread_rwlockattr_init
               exported name: pthread_rwlockattr_init
       78    _pthread_rwlockattr_setpshared
               exported name: pthread_rwlockattr_setpshared
       79    _pthread_self
               exported name: pthread_self
       80    _pthread_setcancelstate
               exported name: pthread_setcancelstate
       81    _pthread_setcanceltype
               exported name: pthread_setcanceltype
       82    _pthread_setconcurrency
               exported name: pthread_setconcurrency
       83    _pthread_setschedparam
               exported name: pthread_setschedparam
       84    _pthread_setspecific
               exported name: pthread_setspecific
       85    _pthread_spin_destroy
               exported name: pthread_spin_destroy
       86    _pthread_spin_init
               exported name: pthread_spin_init
       87    _pthread_spin_lock
               exported name: pthread_spin_lock
       88    _pthread_spin_trylock
               exported name: pthread_spin_trylock
       89    _pthread_spin_unlock
               exported name: pthread_spin_unlock
       90    _pthread_testcancel
               exported name: pthread_testcancel
       91    _pthread_timechange_handler_np
               exported name: pthread_timechange_handler_np
       92    _pthread_win32_process_attach_np
               exported name: pthread_win32_process_attach_np
       93    _pthread_win32_process_detach_np
               exported name: pthread_win32_process_detach_np
       94    _pthread_win32_test_features_np
               exported name: pthread_win32_test_features_np
       95    _pthread_win32_thread_attach_np
               exported name: pthread_win32_thread_attach_np
       96    _pthread_win32_thread_detach_np
               exported name: pthread_win32_thread_detach_np
       97    _ptw32_get_exception_services_code
               exported name: ptw32_get_exception_services_code
       98    _ptw32_pop_cleanup
               exported name: ptw32_pop_cleanup
       99    _ptw32_push_cleanup
               exported name: ptw32_push_cleanup
      100    _sched_get_priority_max
               exported name: sched_get_priority_max
      101    _sched_get_priority_min
               exported name: sched_get_priority_min
      102    _sched_getscheduler
               exported name: sched_getscheduler
      103    _sched_setscheduler
               exported name: sched_setscheduler
      104    _sched_yield
               exported name: sched_yield
      105    _sem_close
               exported name: sem_close
      106    _sem_destroy
               exported name: sem_destroy
      107    _sem_getvalue
               exported name: sem_getvalue
      108    _sem_init
               exported name: sem_init
      109    _sem_open
               exported name: sem_open
      110    _sem_post
               exported name: sem_post
      111    _sem_post_multiple
               exported name: sem_post_multiple
      112    _sem_timedwait
               exported name: sem_timedwait
      113    _sem_trywait
               exported name: sem_trywait
      114    _sem_unlink
               exported name: sem_unlink
      115    _sem_wait
               exported name: sem_wait
